target datalayout = "e-m:e-p270:32:32-p271:32:32-p272:64:64-i64:64-i128:128-f80:128-n8:16:32:64-S128"
target triple = "x86_64-unknown-linux-gnu"

%class.symbol = type { ptr }
%class.opt_stream_buffer = type { ptr, i32, i32 }
%class.lp_parse = type { ptr, ptr, %class.lp_tokenizer, %"struct.lp_parse::objective", %class.vector.41, %class.map.42 }
%class.lp_tokenizer = type { %class.vector.37, i32, %class.svector.38 }
%class.vector.37 = type { ptr }
%class.svector.38 = type { %class.vector.39 }
%class.vector.39 = type { ptr }
%"struct.lp_parse::objective" = type { i8, %class.symbol, %class.vector.40 }
%class.vector.40 = type { ptr }
%class.vector.41 = type { ptr }
%class.map.42 = type { %class.table2map.43 }
%class.table2map.43 = type { %class.core_hashtable.44 }
%class.core_hashtable.44 = type <{ ptr, i32, i32, i32, [4 x i8] }>

; Function Attrs: mustprogress uwtable
define linkonce_odr hidden void @_ZN17opt_stream_bufferC2ERSi(ptr noundef nonnull align 8 dereferenceable(16) %this, ptr noundef nonnull align 8 dereferenceable(16) %s) unnamed_addr #5 comdat align 2 {
entry:
  %this.addr = alloca ptr, align 8
  %s.addr = alloca ptr, align 8
  store ptr %this, ptr %this.addr, align 8
  store ptr %s, ptr %s.addr, align 8
  %this1 = load ptr, ptr %this.addr, align 8
  %m_stream = getelementptr inbounds %class.opt_stream_buffer, ptr %this1, i32 0, i32 0
  %0 = load ptr, ptr %s.addr, align 8
  store ptr %0, ptr %m_stream, align 8
  %m_line = getelementptr inbounds %class.opt_stream_buffer, ptr %this1, i32 0, i32 2
  store i32 0, ptr %m_line, align 4
  %m_stream2 = getelementptr inbounds %class.opt_stream_buffer, ptr %this1, i32 0, i32 0
  %1 = load ptr, ptr %m_stream2, align 8
  %call = call noundef i32 @_ZNSi3getEv(ptr noundef nonnull align 8 dereferenceable(16) %1)
  %m_val = getelementptr inbounds %class.opt_stream_buffer, ptr %this1, i32 0, i32 1
  store i32 %call, ptr %m_val, align 8
  ret void
}

; Function Attrs: mustprogress uwtable
define hidden void @_Z8parse_lpRN3opt7contextERSiR7svectorIjjE(ptr noundef nonnull align 8 dereferenceable(792) %opt, ptr noundef nonnull align 8 dereferenceable(16) %is, ptr noundef nonnull align 8 dereferenceable(8) %h) #5 personality ptr @__gxx_personality_v0 {
entry:
  %opt.addr = alloca ptr, align 8
  %is.addr = alloca ptr, align 8
  %h.addr = alloca ptr, align 8
  %_is = alloca %class.opt_stream_buffer, align 8
  %lp = alloca %class.lp_parse, align 8
  %exn.slot = alloca ptr, align 8
  %ehselector.slot = alloca i32, align 4
  store ptr %opt, ptr %opt.addr, align 8
  store ptr %is, ptr %is.addr, align 8
  store ptr %h, ptr %h.addr, align 8
  %0 = load ptr, ptr %is.addr, align 8
  call void @_ZN17opt_stream_bufferC2ERSi(ptr noundef nonnull align 8 dereferenceable(16) %_is, ptr noundef nonnull align 8 dereferenceable(16) %0)
  %1 = load ptr, ptr %opt.addr, align 8
  %2 = load ptr, ptr %h.addr, align 8
  call void @_ZN8lp_parseC2ERN3opt7contextER17opt_stream_bufferR7svectorIjjE(ptr noundef nonnull align 8 dereferenceable(96) %lp, ptr noundef nonnull align 8 dereferenceable(792) %1, ptr noundef nonnull align 8 dereferenceable(16) %_is, ptr noundef nonnull align 8 dereferenceable(8) %2)
  invoke void @_ZN8lp_parse5parseEv(ptr noundef nonnull align 8 dereferenceable(96) %lp)
          to label %invoke.cont unwind label %lpad

invoke.cont:                                      ; preds = %entry
  call void @_ZN8lp_parseD2Ev(ptr noundef nonnull align 8 dereferenceable(96) %lp) #3
  ret void

lpad:                                             ; preds = %entry
  %3 = landingpad { ptr, i32 }
          cleanup
  %4 = extractvalue { ptr, i32 } %3, 0
  store ptr %4, ptr %exn.slot, align 8
  %5 = extractvalue { ptr, i32 } %3, 1
  store i32 %5, ptr %ehselector.slot, align 4
  call void @_ZN8lp_parseD2Ev(ptr noundef nonnull align 8 dereferenceable(96) %lp) #3
  br label %eh.resume

eh.resume:                                        ; preds = %lpad
  %exn = load ptr, ptr %exn.slot, align 8
  %sel = load i32, ptr %ehselector.slot, align 4
  %lpad.val = insertvalue { ptr, i32 } poison, ptr %exn, 0
  %lpad.val1 = insertvalue { ptr, i32 } %lpad.val, i32 %sel, 1
  resume { ptr, i32 } %lpad.val1
}