; Function Attrs: mustprogress uwtable
define hidden void @_Z8parse_lpRN3opt7contextERSiR7svectorIjjE(ptr noundef nonnull align 8 dereferenceable(792) %opt, ptr noundef nonnull align 8 dereferenceable(16) %is, ptr noundef nonnull align 8 dereferenceable(8) %h) local_unnamed_addr #3 personality ptr @__gxx_personality_v0 {
entry:
  %_is = alloca %class.opt_stream_buffer, align 8
  %lp = alloca %class.lp_parse, align 8
  store ptr %is, ptr %_is, align 8
  %m_line.i = getelementptr inbounds i8, ptr %_is, i64 12
  store i32 0, ptr %m_line.i, align 4
  %call.i = tail call noundef i32 @_ZNSi3getEv(ptr noundef nonnull align 8 dereferenceable(16) %is)
  %m_val.i = getelementptr inbounds i8, ptr %_is, i64 8
  store i32 %call.i, ptr %m_val.i, align 8
  call void @_ZN8lp_parseC2ERN3opt7contextER17opt_stream_bufferR7svectorIjjE(ptr noundef nonnull align 8 dereferenceable(96) %lp, ptr noundef nonnull align 8 dereferenceable(792) %opt, ptr noundef nonnull align 8 dereferenceable(16) %_is, ptr noundef nonnull align 8 dereferenceable(8) %h)
  invoke void @_ZN8lp_parse5parseEv(ptr noundef nonnull align 8 dereferenceable(96) %lp)
          to label %invoke.cont unwind label %lpad

invoke.cont:                                      ; preds = %entry
  call void @_ZN8lp_parseD2Ev(ptr noundef nonnull align 8 dereferenceable(96) %lp) #16
  ret void

lpad:                                             ; preds = %entry
  %0 = landingpad { ptr, i32 }
          cleanup
  call void @_ZN8lp_parseD2Ev(ptr noundef nonnull align 8 dereferenceable(96) %lp) #16
  resume { ptr, i32 } %0
}